target datalayout = "e-m:e-p270:32:32-p271:32:32-p272:64:64-i64:64-i128:128-f80:128-n8:16:32:64-S128"
target triple = "x86_64-pc-linux-gnu"

%union.pthread_mutex_t = type { %struct.__pthread_mutex_s }
%struct.__pthread_mutex_s = type { i32, i32, i32, i32, i32, i16, i16, %struct.__pthread_internal_list }
%struct.__pthread_internal_list = type { ptr, ptr }
%struct.optstruct = type { ptr, ptr, ptr, i64, i32, i32, i32, i32, ptr, ptr, ptr }

@.str = private unnamed_addr constant [11 x i8] c"VirusEvent\00", align 1
@.str.1 = private unnamed_addr constant [5 x i8] c"PATH\00", align 1
@.str.2 = private unnamed_addr constant [6 x i8] c"%s=%s\00", align 1
@.str.3 = private unnamed_addr constant [25 x i8] c"CLAM_VIRUSEVENT_FILENAME\00", align 1
@.str.4 = private unnamed_addr constant [26 x i8] c"CLAM_VIRUSEVENT_VIRUSNAME\00", align 1
@.str.5 = private unnamed_addr constant [3 x i8] c"%v\00", align 1
@.str.6 = private unnamed_addr constant [3 x i8] c"%f\00", align 1
@.str.7 = private unnamed_addr constant [139 x i8] c"The filename format character has been disabled due to security concerns, use the 'CLAM_VIRUSEVENT_FILENAME' environment variable instead.\00", align 1
@virusaction_lock = internal global %union.pthread_mutex_t zeroinitializer, align 8
@.str.8 = private unnamed_addr constant [8 x i8] c"/bin/sh\00", align 1
@.str.9 = private unnamed_addr constant [3 x i8] c"sh\00", align 1
@.str.10 = private unnamed_addr constant [3 x i8] c"-c\00", align 1
@.str.11 = private unnamed_addr constant [26 x i8] c"VirusEvent: fork failed.\0A\00", align 1

; Function Attrs: nounwind uwtable
define internal void @xfree(ptr noundef %0) #0 {
  %2 = alloca ptr, align 8
  store ptr %0, ptr %2, align 8
  %3 = load ptr, ptr %2, align 8
  %4 = icmp ne ptr %3, null
  br i1 %4, label %5, label %7

5:                                                ; preds = %1
  %6 = load ptr, ptr %2, align 8
  call void @free(ptr noundef %6) #12
  br label %7

7:                                                ; preds = %5, %1
  ret void
}

; Function Attrs: nounwind uwtable
define dso_local void @virusaction(ptr noundef %0, ptr noundef %1, ptr noundef %2) #0 {
  %4 = alloca ptr, align 8
  %5 = alloca ptr, align 8
  %6 = alloca ptr, align 8
  %7 = alloca i32, align 4
  %8 = alloca ptr, align 8
  %9 = alloca ptr, align 8
  %10 = alloca ptr, align 8
  %11 = alloca ptr, align 8
  %12 = alloca ptr, align 8
  %13 = alloca ptr, align 8
  %14 = alloca i64, align 8
  %15 = alloca i64, align 8
  %16 = alloca i64, align 8
  %17 = alloca i64, align 8
  %18 = alloca i64, align 8
  %19 = alloca [4 x ptr], align 16
  store ptr %0, ptr %4, align 8
  store ptr %1, ptr %5, align 8
  store ptr %2, ptr %6, align 8
  store i64 0, ptr %16, align 8
  store i64 0, ptr %17, align 8
  %20 = load ptr, ptr %6, align 8
  %21 = call ptr @optget(ptr noundef %20, ptr noundef @.str)
  store ptr %21, ptr %8, align 8
  %22 = getelementptr inbounds %struct.optstruct, ptr %21, i32 0, i32 4
  %23 = load i32, ptr %22, align 8
  %24 = icmp ne i32 %23, 0
  br i1 %24, label %26, label %25

25:                                               ; preds = %3
  br label %255

26:                                               ; preds = %3
  %27 = call ptr @getenv(ptr noundef @.str.1) #12
  store ptr %27, ptr %12, align 8
  %28 = load ptr, ptr %12, align 8
  %29 = icmp ne ptr %28, null
  br i1 %29, label %30, label %33

30:                                               ; preds = %26
  %31 = load ptr, ptr %12, align 8
  %32 = call noalias ptr @strdup(ptr noundef %31) #12
  br label %34

33:                                               ; preds = %26
  br label %34

34:                                               ; preds = %33, %30
  %35 = phi ptr [ %32, %30 ], [ null, %33 ]
  %36 = getelementptr inbounds [4 x ptr], ptr %19, i64 0, i64 0
  store ptr %35, ptr %36, align 16
  %37 = getelementptr inbounds [4 x ptr], ptr %19, i64 0, i64 0
  %38 = load ptr, ptr %37, align 16
  %39 = icmp ne ptr %38, null
  %40 = select i1 %39, i32 1, i32 0
  %41 = sext i32 %40 to i64
  store i64 %41, ptr %15, align 8
  %42 = load ptr, ptr %4, align 8
  %43 = call i64 @strlen(ptr noundef %42) #13
  %44 = add i64 24, %43
  %45 = add i64 %44, 2
  %46 = call noalias ptr @malloc(i64 noundef %45) #14
  store ptr %46, ptr %9, align 8
  %47 = load ptr, ptr %9, align 8
  %48 = icmp ne ptr %47, null
  br i1 %48, label %49, label %57

49:                                               ; preds = %34
  %50 = load ptr, ptr %9, align 8
  %51 = load ptr, ptr %4, align 8
  %52 = call i32 (ptr, ptr, ...) @sprintf(ptr noundef %50, ptr noundef @.str.2, ptr noundef @.str.3, ptr noundef %51) #12
  %53 = load ptr, ptr %9, align 8
  %54 = load i64, ptr %15, align 8
  %55 = add i64 %54, 1
  store i64 %55, ptr %15, align 8
  %56 = getelementptr inbounds [4 x ptr], ptr %19, i64 0, i64 %54
  store ptr %53, ptr %56, align 8
  br label %57

57:                                               ; preds = %49, %34
  %58 = load ptr, ptr %5, align 8
  %59 = call i64 @strlen(ptr noundef %58) #13
  %60 = add i64 25, %59
  %61 = add i64 %60, 2
  %62 = call noalias ptr @malloc(i64 noundef %61) #14
  store ptr %62, ptr %10, align 8
  %63 = load ptr, ptr %10, align 8
  %64 = icmp ne ptr %63, null
  br i1 %64, label %65, label %73

65:                                               ; preds = %57
  %66 = load ptr, ptr %10, align 8
  %67 = load ptr, ptr %5, align 8
  %68 = call i32 (ptr, ptr, ...) @sprintf(ptr noundef %66, ptr noundef @.str.2, ptr noundef @.str.4, ptr noundef %67) #12
  %69 = load ptr, ptr %10, align 8
  %70 = load i64, ptr %15, align 8
  %71 = add i64 %70, 1
  store i64 %71, ptr %15, align 8
  %72 = getelementptr inbounds [4 x ptr], ptr %19, i64 0, i64 %70
  store ptr %69, ptr %72, align 8
  br label %73

73:                                               ; preds = %65, %57
  %74 = load i64, ptr %15, align 8
  %75 = add i64 %74, 1
  store i64 %75, ptr %15, align 8
  %76 = getelementptr inbounds [4 x ptr], ptr %19, i64 0, i64 %74
  store ptr null, ptr %76, align 8
  %77 = load ptr, ptr %8, align 8
  %78 = getelementptr inbounds %struct.optstruct, ptr %77, i32 0, i32 2
  %79 = load ptr, ptr %78, align 8
  store ptr %79, ptr %13, align 8
  br label %80

80:                                               ; preds = %84, %73
  %81 = load ptr, ptr %13, align 8
  %82 = call ptr @strstr(ptr noundef %81, ptr noundef @.str.5) #13
  store ptr %82, ptr %13, align 8
  %83 = icmp ne ptr %82, null
  br i1 %83, label %84, label %89

84:                                               ; preds = %80
  %85 = load ptr, ptr %13, align 8
  %86 = getelementptr inbounds i8, ptr %85, i64 2
  store ptr %86, ptr %13, align 8
  %87 = load i64, ptr %16, align 8
  %88 = add i64 %87, 1
  store i64 %88, ptr %16, align 8
  br label %80

89:                                               ; preds = %80
  %90 = load ptr, ptr %8, align 8
  %91 = getelementptr inbounds %struct.optstruct, ptr %90, i32 0, i32 2
  %92 = load ptr, ptr %91, align 8
  store ptr %92, ptr %13, align 8
  br label %93

93:                                               ; preds = %97, %89
  %94 = load ptr, ptr %13, align 8
  %95 = call ptr @strstr(ptr noundef %94, ptr noundef @.str.6) #13
  store ptr %95, ptr %13, align 8
  %96 = icmp ne ptr %95, null
  br i1 %96, label %97, label %102

97:                                               ; preds = %93
  %98 = load ptr, ptr %13, align 8
  %99 = getelementptr inbounds i8, ptr %98, i64 2
  store ptr %99, ptr %13, align 8
  %100 = load i64, ptr %17, align 8
  %101 = add i64 %100, 1
  store i64 %101, ptr %17, align 8
  br label %93

102:                                              ; preds = %93
  %103 = load ptr, ptr %8, align 8
  %104 = getelementptr inbounds %struct.optstruct, ptr %103, i32 0, i32 2
  %105 = load ptr, ptr %104, align 8
  %106 = call i64 @strlen(ptr noundef %105) #13
  store i64 %106, ptr %18, align 8
  %107 = load i64, ptr %18, align 8
  %108 = load i64, ptr %16, align 8
  %109 = load ptr, ptr %5, align 8
  %110 = call i64 @strlen(ptr noundef %109) #13
  %111 = mul i64 %108, %110
  %112 = add i64 %107, %111
  %113 = load i64, ptr %17, align 8
  %114 = mul i64 %113, 138
  %115 = add i64 %112, %114
  %116 = add i64 %115, 1
  %117 = call noalias ptr @calloc(i64 noundef %116, i64 noundef 1) #15
  store ptr %117, ptr %11, align 8
  %118 = load ptr, ptr %11, align 8
  %119 = icmp ne ptr %118, null
  br i1 %119, label %129, label %120

120:                                              ; preds = %102
  %121 = load ptr, ptr %12, align 8
  %122 = icmp ne ptr %121, null
  br i1 %122, label %123, label %126

123:                                              ; preds = %120
  %124 = getelementptr inbounds [4 x ptr], ptr %19, i64 0, i64 0
  %125 = load ptr, ptr %124, align 16
  call void @xfree(ptr noundef %125)
  br label %126

126:                                              ; preds = %123, %120
  %127 = load ptr, ptr %9, align 8
  call void @xfree(ptr noundef %127)
  %128 = load ptr, ptr %10, align 8
  call void @xfree(ptr noundef %128)
  br label %255

129:                                              ; preds = %102
  store i64 0, ptr %14, align 8
  store i64 0, ptr %15, align 8
  br label %130

130:                                              ; preds = %212, %129
  %131 = load i64, ptr %14, align 8
  %132 = load i64, ptr %18, align 8
  %133 = icmp ult i64 %131, %132
  br i1 %133, label %134, label %215

134:                                              ; preds = %130
  %135 = load i64, ptr %14, align 8
  %136 = add i64 %135, 1
  %137 = load i64, ptr %18, align 8
  %138 = icmp ult i64 %136, %137
  br i1 %138, label %139, label %168

139:                                              ; preds = %134
  %140 = load ptr, ptr %8, align 8
  %141 = getelementptr inbounds %struct.optstruct, ptr %140, i32 0, i32 2
  %142 = load ptr, ptr %141, align 8
  %143 = load i64, ptr %14, align 8
  %144 = getelementptr inbounds i8, ptr %142, i64 %143
  %145 = load i8, ptr %144, align 1
  %146 = sext i8 %145 to i32
  %147 = icmp eq i32 %146, 37
  br i1 %147, label %148, label %168

148:                                              ; preds = %139
  %149 = load ptr, ptr %8, align 8
  %150 = getelementptr inbounds %struct.optstruct, ptr %149, i32 0, i32 2
  %151 = load ptr, ptr %150, align 8
  %152 = load i64, ptr %14, align 8
  %153 = add i64 %152, 1
  %154 = getelementptr inbounds i8, ptr %151, i64 %153
  %155 = load i8, ptr %154, align 1
  %156 = sext i8 %155 to i32
  %157 = icmp eq i32 %156, 118
  br i1 %157, label %158, label %168

158:                                              ; preds = %148
  %159 = load ptr, ptr %11, align 8
  %160 = load ptr, ptr %5, align 8
  %161 = call ptr @strcat(ptr noundef %159, ptr noundef %160) #12
  %162 = load ptr, ptr %5, align 8
  %163 = call i64 @strlen(ptr noundef %162) #13
  %164 = load i64, ptr %15, align 8
  %165 = add i64 %164, %163
  store i64 %165, ptr %15, align 8
  %166 = load i64, ptr %14, align 8
  %167 = add i64 %166, 1
  store i64 %167, ptr %14, align 8
  br label %211

168:                                              ; preds = %148, %139, %134
  %169 = load i64, ptr %14, align 8
  %170 = add i64 %169, 1
  %171 = load i64, ptr %18, align 8
  %172 = icmp ult i64 %170, %171
  br i1 %172, label %173, label %199

173:                                              ; preds = %168
  %174 = load ptr, ptr %8, align 8
  %175 = getelementptr inbounds %struct.optstruct, ptr %174, i32 0, i32 2
  %176 = load ptr, ptr %175, align 8
  %177 = load i64, ptr %14, align 8
  %178 = getelementptr inbounds i8, ptr %176, i64 %177
  %179 = load i8, ptr %178, align 1
  %180 = sext i8 %179 to i32
  %181 = icmp eq i32 %180, 37
  br i1 %181, label %182, label %199

182:                                              ; preds = %173
  %183 = load ptr, ptr %8, align 8
  %184 = getelementptr inbounds %struct.optstruct, ptr %183, i32 0, i32 2
  %185 = load ptr, ptr %184, align 8
  %186 = load i64, ptr %14, align 8
  %187 = add i64 %186, 1
  %188 = getelementptr inbounds i8, ptr %185, i64 %187
  %189 = load i8, ptr %188, align 1
  %190 = sext i8 %189 to i32
  %191 = icmp eq i32 %190, 102
  br i1 %191, label %192, label %199

192:                                              ; preds = %182
  %193 = load ptr, ptr %11, align 8
  %194 = call ptr @strcat(ptr noundef %193, ptr noundef @.str.7) #12
  %195 = load i64, ptr %15, align 8
  %196 = add i64 %195, 138
  store i64 %196, ptr %15, align 8
  %197 = load i64, ptr %14, align 8
  %198 = add i64 %197, 1
  store i64 %198, ptr %14, align 8
  br label %210

199:                                              ; preds = %182, %173, %168
  %200 = load ptr, ptr %8, align 8
  %201 = getelementptr inbounds %struct.optstruct, ptr %200, i32 0, i32 2
  %202 = load ptr, ptr %201, align 8
  %203 = load i64, ptr %14, align 8
  %204 = getelementptr inbounds i8, ptr %202, i64 %203
  %205 = load i8, ptr %204, align 1
  %206 = load ptr, ptr %11, align 8
  %207 = load i64, ptr %15, align 8
  %208 = add i64 %207, 1
  store i64 %208, ptr %15, align 8
  %209 = getelementptr inbounds i8, ptr %206, i64 %207
  store i8 %205, ptr %209, align 1
  br label %210

210:                                              ; preds = %199, %192
  br label %211

211:                                              ; preds = %210, %158
  br label %212

212:                                              ; preds = %211
  %213 = load i64, ptr %14, align 8
  %214 = add i64 %213, 1
  store i64 %214, ptr %14, align 8
  br label %130

215:                                              ; preds = %130
  %216 = call i32 @pthread_mutex_lock(ptr noundef @virusaction_lock) #12
  %217 = call i32 @vfork() #16
  store i32 %217, ptr %7, align 4
  %218 = load i32, ptr %7, align 4
  %219 = icmp eq i32 %218, 0
  br i1 %219, label %220, label %224

220:                                              ; preds = %215
  %221 = load ptr, ptr %11, align 8
  %222 = getelementptr inbounds [4 x ptr], ptr %19, i64 0, i64 0
  %223 = call i32 (ptr, ptr, ...) @execle(ptr noundef @.str.8, ptr noundef @.str.9, ptr noundef @.str.10, ptr noundef %221, ptr noundef null, ptr noundef %222) #12
  call void @_exit(i32 noundef %223) #17
  unreachable

224:                                              ; preds = %215
  %225 = load i32, ptr %7, align 4
  %226 = icmp sgt i32 %225, 0
  br i1 %226, label %227, label %241

227:                                              ; preds = %224
  %228 = call i32 @pthread_mutex_unlock(ptr noundef @virusaction_lock) #12
  br label %229

229:                                              ; preds = %239, %227
  %230 = load i32, ptr %7, align 4
  %231 = call i32 @waitpid(i32 noundef %230, ptr noundef null, i32 noundef 0)
  %232 = icmp eq i32 %231, -1
  br i1 %232, label %233, label %237

233:                                              ; preds = %229
  %234 = call ptr @__errno_location() #18
  %235 = load i32, ptr %234, align 4
  %236 = icmp eq i32 %235, 4
  br label %237

237:                                              ; preds = %233, %229
  %238 = phi i1 [ false, %229 ], [ %236, %233 ]
  br i1 %238, label %239, label %240

239:                                              ; preds = %237
  br label %229

240:                                              ; preds = %237
  br label %244

241:                                              ; preds = %224
  %242 = call i32 @pthread_mutex_unlock(ptr noundef @virusaction_lock) #12
  %243 = call i32 (i32, ptr, ...) @logg(i32 noundef 5, ptr noundef @.str.11)
  br label %244

244:                                              ; preds = %241, %240
  br label %245

245:                                              ; preds = %244
  %246 = load ptr, ptr %12, align 8
  %247 = icmp ne ptr %246, null
  br i1 %247, label %248, label %251

248:                                              ; preds = %245
  %249 = getelementptr inbounds [4 x ptr], ptr %19, i64 0, i64 0
  %250 = load ptr, ptr %249, align 16
  call void @xfree(ptr noundef %250)
  br label %251

251:                                              ; preds = %248, %245
  %252 = load ptr, ptr %11, align 8
  call void @xfree(ptr noundef %252)
  %253 = load ptr, ptr %9, align 8
  call void @xfree(ptr noundef %253)
  %254 = load ptr, ptr %10, align 8
  call void @xfree(ptr noundef %254)
  br label %255

255:                                              ; preds = %251, %126, %25
  ret void
}